; Function Attrs: mustprogress nounwind uwtable
define noundef ptr @_Z29rtlil_frontend_yy_scan_bufferPcm(ptr noundef %0, i64 noundef %1) local_unnamed_addr #5 {
  %3 = icmp ult i64 %1, 2
  br i1 %3, label %26, label %4

4:                                                ; preds = %2
  %5 = add i64 %1, -2
  %6 = getelementptr inbounds nuw i8, ptr %0, i64 %5
  %7 = load i8, ptr %6, align 1, !tbaa !29
  %.not = icmp eq i8 %7, 0
  br i1 %.not, label %8, label %26

8:                                                ; preds = %4
  %9 = getelementptr i8, ptr %0, i64 %1
  %10 = getelementptr i8, ptr %9, i64 -1
  %11 = load i8, ptr %10, align 1, !tbaa !29
  %.not23 = icmp eq i8 %11, 0
  br i1 %.not23, label %12, label %26

12:                                               ; preds = %8
  %13 = tail call noalias noundef dereferenceable_or_null(64) ptr @malloc(i64 noundef 64) #27
  %.not24 = icmp eq ptr %13, null
  br i1 %.not24, label %14, label %15

14:                                               ; preds = %12
  tail call fastcc void @_ZL14yy_fatal_errorPKc(ptr noundef nonnull @.str.2) #28
  unreachable

15:                                               ; preds = %12
  %16 = trunc i64 %5 to i32
  %17 = getelementptr inbounds nuw i8, ptr %13, i64 24
  store i32 %16, ptr %17, align 8, !tbaa !22
  %18 = getelementptr inbounds nuw i8, ptr %13, i64 8
  store ptr %0, ptr %18, align 8, !tbaa !24
  %19 = getelementptr inbounds nuw i8, ptr %13, i64 16
  store ptr %0, ptr %19, align 8, !tbaa !27
  %20 = getelementptr inbounds nuw i8, ptr %13, i64 32
  store i32 0, ptr %20, align 8, !tbaa !25
  store ptr null, ptr %13, align 8, !tbaa !28
  %21 = getelementptr inbounds nuw i8, ptr %13, i64 28
  store i32 %16, ptr %21, align 4, !tbaa !26
  %22 = getelementptr inbounds nuw i8, ptr %13, i64 36
  store i32 0, ptr %22, align 4, !tbaa !50
  %23 = getelementptr inbounds nuw i8, ptr %13, i64 40
  store i32 1, ptr %23, align 8, !tbaa !47
  %24 = getelementptr inbounds nuw i8, ptr %13, i64 52
  store i32 0, ptr %24, align 4, !tbaa !42
  %25 = getelementptr inbounds nuw i8, ptr %13, i64 56
  store i32 0, ptr %25, align 8, !tbaa !38
  tail call void @_Z34rtlil_frontend_yy_switch_to_bufferP15yy_buffer_state(ptr noundef nonnull %13)
  br label %26

26:                                               ; preds = %2, %4, %8, %15
  %.0 = phi ptr [ %13, %15 ], [ null, %8 ], [ null, %4 ], [ null, %2 ]
  ret ptr %.0
}